target datalayout = "e-m:e-p270:32:32-p271:32:32-p272:64:64-i64:64-i128:128-f80:128-n8:16:32:64-S128"
target triple = "x86_64-unknown-linux-gnu"

%struct.redisReply = type { i32, i64, double, i64, ptr, [4 x i8], i64, ptr }
%struct.redisConfig = type { ptr, ptr }

@stderr = external global ptr, align 8
@.str.16420 = private unnamed_addr constant [1 x i8] zeroinitializer, align 1
@.str.16533 = private unnamed_addr constant [35 x i8] c"Node %s:%d replied with error:\0A%s\0A\00", align 1
@.str.16534 = private unnamed_addr constant [32 x i8] c"Node %s replied with error:\0A%s\0A\00", align 1
@.str.16537 = private unnamed_addr constant [14 x i8] c"CONFIG GET %s\00", align 1
@.str.16538 = private unnamed_addr constant [5 x i8] c"save\00", align 1
@.str.16539 = private unnamed_addr constant [11 x i8] c"appendonly\00", align 1
@.str.16540 = private unnamed_addr constant [7 x i8] c"NOAUTH\00", align 1

; Function Attrs: nounwind uwtable
define internal ptr @getRedisConfig(ptr noundef %ip, i32 noundef %port, ptr noundef %hostsocket) #0 {
entry:
  %retval = alloca ptr, align 8
  %ip.addr = alloca ptr, align 8
  %port.addr = alloca i32, align 4
  %hostsocket.addr = alloca ptr, align 8
  %cfg = alloca ptr, align 8
  %c = alloca ptr, align 8
  %reply = alloca ptr, align 8
  %sub_reply = alloca ptr, align 8
  %abort_test = alloca i32, align 4
  %i = alloca i32, align 4
  %r = alloca ptr, align 8
  %res = alloca i32, align 4
  %value = alloca ptr, align 8
  store ptr %ip, ptr %ip.addr, align 8
  store i32 %port, ptr %port.addr, align 4
  store ptr %hostsocket, ptr %hostsocket.addr, align 8
  %call = call noalias ptr @zcalloc(i64 noundef 16) #13
  store ptr %call, ptr %cfg, align 8
  %0 = load ptr, ptr %cfg, align 8
  %tobool = icmp ne ptr %0, null
  br i1 %tobool, label %if.end, label %if.then

if.then:                                          ; preds = %entry
  store ptr null, ptr %retval, align 8
  br label %return

if.end:                                           ; preds = %entry
  store ptr null, ptr %c, align 8
  store ptr null, ptr %reply, align 8
  store ptr null, ptr %sub_reply, align 8
  %1 = load ptr, ptr %ip.addr, align 8
  %2 = load i32, ptr %port.addr, align 4
  %3 = load ptr, ptr %hostsocket.addr, align 8
  %call1 = call ptr @getRedisContext(ptr noundef %1, i32 noundef %2, ptr noundef %3)
  store ptr %call1, ptr %c, align 8
  %4 = load ptr, ptr %c, align 8
  %cmp = icmp eq ptr %4, null
  br i1 %cmp, label %if.then2, label %if.end3

if.then2:                                         ; preds = %if.end
  %5 = load ptr, ptr %cfg, align 8
  call void @freeRedisConfig(ptr noundef %5)
  call void @exit(i32 noundef 1) #11
  unreachable

if.end3:                                          ; preds = %if.end
  %6 = load ptr, ptr %c, align 8
  %call4 = call i32 (ptr, ptr, ...) @redisAppendCommand(ptr noundef %6, ptr noundef @.str.16537, ptr noundef @.str.16538)
  %7 = load ptr, ptr %c, align 8
  %call5 = call i32 (ptr, ptr, ...) @redisAppendCommand(ptr noundef %7, ptr noundef @.str.16537, ptr noundef @.str.16539)
  store i32 0, ptr %abort_test, align 4
  store i32 0, ptr %i, align 4
  store ptr null, ptr %r, align 8
  br label %for.cond

for.cond:                                         ; preds = %for.inc, %if.end3
  %8 = load i32, ptr %i, align 4
  %cmp6 = icmp slt i32 %8, 2
  br i1 %cmp6, label %for.body, label %for.end

for.body:                                         ; preds = %for.cond
  %9 = load ptr, ptr %c, align 8
  %call7 = call i32 @redisGetReply(ptr noundef %9, ptr noundef %r)
  store i32 %call7, ptr %res, align 4
  %10 = load ptr, ptr %reply, align 8
  %tobool8 = icmp ne ptr %10, null
  br i1 %tobool8, label %if.then9, label %if.end10

if.then9:                                         ; preds = %for.body
  %11 = load ptr, ptr %reply, align 8
  call void @freeReplyObject(ptr noundef %11)
  br label %if.end10

if.end10:                                         ; preds = %if.then9, %for.body
  %12 = load i32, ptr %res, align 4
  %cmp11 = icmp eq i32 %12, 0
  br i1 %cmp11, label %cond.true, label %cond.false

cond.true:                                        ; preds = %if.end10
  %13 = load ptr, ptr %r, align 8
  br label %cond.end

cond.false:                                       ; preds = %if.end10
  br label %cond.end

cond.end:                                         ; preds = %cond.false, %cond.true
  %cond = phi ptr [ %13, %cond.true ], [ null, %cond.false ]
  store ptr %cond, ptr %reply, align 8
  %14 = load i32, ptr %res, align 4
  %cmp12 = icmp ne i32 %14, 0
  br i1 %cmp12, label %if.then14, label %lor.lhs.false

lor.lhs.false:                                    ; preds = %cond.end
  %15 = load ptr, ptr %r, align 8
  %tobool13 = icmp ne ptr %15, null
  br i1 %tobool13, label %if.end15, label %if.then14

if.then14:                                        ; preds = %lor.lhs.false, %cond.end
  br label %fail

if.end15:                                         ; preds = %lor.lhs.false
  %16 = load ptr, ptr %reply, align 8
  %type = getelementptr inbounds %struct.redisReply, ptr %16, i32 0, i32 0
  %17 = load i32, ptr %type, align 8
  %cmp16 = icmp eq i32 %17, 6
  br i1 %cmp16, label %if.then17, label %if.end18

if.then17:                                        ; preds = %if.end15
  br label %fail

if.end18:                                         ; preds = %if.end15
  %18 = load ptr, ptr %reply, align 8
  %type19 = getelementptr inbounds %struct.redisReply, ptr %18, i32 0, i32 0
  %19 = load i32, ptr %type19, align 8
  %cmp20 = icmp ne i32 %19, 2
  br i1 %cmp20, label %if.then23, label %lor.lhs.false21

lor.lhs.false21:                                  ; preds = %if.end18
  %20 = load ptr, ptr %reply, align 8
  %elements = getelementptr inbounds %struct.redisReply, ptr %20, i32 0, i32 6
  %21 = load i64, ptr %elements, align 8
  %cmp22 = icmp ult i64 %21, 2
  br i1 %cmp22, label %if.then23, label %if.end24

if.then23:                                        ; preds = %lor.lhs.false21, %if.end18
  br label %fail

if.end24:                                         ; preds = %lor.lhs.false21
  %22 = load ptr, ptr %reply, align 8
  %element = getelementptr inbounds %struct.redisReply, ptr %22, i32 0, i32 7
  %23 = load ptr, ptr %element, align 8
  %arrayidx = getelementptr inbounds ptr, ptr %23, i64 1
  %24 = load ptr, ptr %arrayidx, align 8
  store ptr %24, ptr %sub_reply, align 8
  %25 = load ptr, ptr %sub_reply, align 8
  %str = getelementptr inbounds %struct.redisReply, ptr %25, i32 0, i32 4
  %26 = load ptr, ptr %str, align 8
  store ptr %26, ptr %value, align 8
  %27 = load ptr, ptr %value, align 8
  %tobool25 = icmp ne ptr %27, null
  br i1 %tobool25, label %if.end27, label %if.then26

if.then26:                                        ; preds = %if.end24
  store ptr @.str.16420, ptr %value, align 8
  br label %if.end27

if.end27:                                         ; preds = %if.then26, %if.end24
  %28 = load i32, ptr %i, align 4
  switch i32 %28, label %sw.epilog [
    i32 0, label %sw.bb
    i32 1, label %sw.bb29
  ]

sw.bb:                                            ; preds = %if.end27
  %29 = load ptr, ptr %value, align 8
  %call28 = call ptr @hi_sdsnew(ptr noundef %29)
  %30 = load ptr, ptr %cfg, align 8
  %save = getelementptr inbounds %struct.redisConfig, ptr %30, i32 0, i32 0
  store ptr %call28, ptr %save, align 8
  br label %sw.epilog

sw.bb29:                                          ; preds = %if.end27
  %31 = load ptr, ptr %value, align 8
  %call30 = call ptr @hi_sdsnew(ptr noundef %31)
  %32 = load ptr, ptr %cfg, align 8
  %appendonly = getelementptr inbounds %struct.redisConfig, ptr %32, i32 0, i32 1
  store ptr %call30, ptr %appendonly, align 8
  br label %sw.epilog

sw.epilog:                                        ; preds = %sw.bb29, %sw.bb, %if.end27
  br label %for.inc

for.inc:                                          ; preds = %sw.epilog
  %33 = load i32, ptr %i, align 4
  %inc = add nsw i32 %33, 1
  store i32 %inc, ptr %i, align 4
  br label %for.cond, !llvm.loop !17

for.end:                                          ; preds = %for.cond
  %34 = load ptr, ptr %reply, align 8
  call void @freeReplyObject(ptr noundef %34)
  %35 = load ptr, ptr %c, align 8
  call void @redisFree(ptr noundef %35)
  %36 = load ptr, ptr %cfg, align 8
  store ptr %36, ptr %retval, align 8
  br label %return

fail:                                             ; preds = %if.then23, %if.then17, %if.then14
  %37 = load ptr, ptr %reply, align 8
  %tobool31 = icmp ne ptr %37, null
  br i1 %tobool31, label %land.lhs.true, label %if.end46

land.lhs.true:                                    ; preds = %fail
  %38 = load ptr, ptr %reply, align 8
  %type32 = getelementptr inbounds %struct.redisReply, ptr %38, i32 0, i32 0
  %39 = load i32, ptr %type32, align 8
  %cmp33 = icmp eq i32 %39, 6
  br i1 %cmp33, label %land.lhs.true34, label %if.end46

land.lhs.true34:                                  ; preds = %land.lhs.true
  %40 = load ptr, ptr %reply, align 8
  %str35 = getelementptr inbounds %struct.redisReply, ptr %40, i32 0, i32 4
  %41 = load ptr, ptr %str35, align 8
  %call36 = call i32 @strncmp(ptr noundef %41, ptr noundef @.str.16540, i64 noundef 6) #10
  %tobool37 = icmp ne i32 %call36, 0
  br i1 %tobool37, label %if.end46, label %if.then38

if.then38:                                        ; preds = %land.lhs.true34
  %42 = load ptr, ptr %hostsocket.addr, align 8
  %cmp39 = icmp eq ptr %42, null
  br i1 %cmp39, label %if.then40, label %if.else

if.then40:                                        ; preds = %if.then38
  %43 = load ptr, ptr @stderr, align 8
  %44 = load ptr, ptr %ip.addr, align 8
  %45 = load i32, ptr %port.addr, align 4
  %46 = load ptr, ptr %reply, align 8
  %str41 = getelementptr inbounds %struct.redisReply, ptr %46, i32 0, i32 4
  %47 = load ptr, ptr %str41, align 8
  %call42 = call i32 (ptr, ptr, ...) @fprintf(ptr noundef %43, ptr noundef @.str.16533, ptr noundef %44, i32 noundef %45, ptr noundef %47) #12
  br label %if.end45

if.else:                                          ; preds = %if.then38
  %48 = load ptr, ptr @stderr, align 8
  %49 = load ptr, ptr %hostsocket.addr, align 8
  %50 = load ptr, ptr %reply, align 8
  %str43 = getelementptr inbounds %struct.redisReply, ptr %50, i32 0, i32 4
  %51 = load ptr, ptr %str43, align 8
  %call44 = call i32 (ptr, ptr, ...) @fprintf(ptr noundef %48, ptr noundef @.str.16534, ptr noundef %49, ptr noundef %51) #12
  br label %if.end45

if.end45:                                         ; preds = %if.else, %if.then40
  store i32 1, ptr %abort_test, align 4
  br label %if.end46

if.end46:                                         ; preds = %if.end45, %land.lhs.true34, %land.lhs.true, %fail
  %52 = load ptr, ptr %reply, align 8
  call void @freeReplyObject(ptr noundef %52)
  %53 = load ptr, ptr %c, align 8
  call void @redisFree(ptr noundef %53)
  %54 = load ptr, ptr %cfg, align 8
  call void @freeRedisConfig(ptr noundef %54)
  %55 = load i32, ptr %abort_test, align 4
  %tobool47 = icmp ne i32 %55, 0
  br i1 %tobool47, label %if.then48, label %if.end49

if.then48:                                        ; preds = %if.end46
  call void @exit(i32 noundef 1) #11
  unreachable

if.end49:                                         ; preds = %if.end46
  store ptr null, ptr %retval, align 8
  br label %return

return:                                           ; preds = %if.end49, %for.end, %if.then
  %56 = load ptr, ptr %retval, align 8
  ret ptr %56
}