; Function Attrs: nounwind uwtable
define internal fastcc noundef ptr @getRedisConfig(ptr noundef %ip, i32 noundef %port, ptr noundef %hostsocket) unnamed_addr #0 {
entry:
  %r = alloca ptr, align 8
  %call = tail call noalias dereferenceable_or_null(16) ptr @zcalloc(i64 noundef 16) #26
  %tobool.not = icmp eq ptr %call, null
  br i1 %tobool.not, label %return, label %if.end

if.end:                                           ; preds = %entry
  %call1 = tail call fastcc ptr @getRedisContext(ptr noundef %ip, i32 noundef %port, ptr noundef %hostsocket)
  %cmp = icmp eq ptr %call1, null
  br i1 %cmp, label %if.then2, label %if.end3

if.then2:                                         ; preds = %if.end
  tail call fastcc void @freeRedisConfig(ptr noundef nonnull %call)
  tail call void @exit(i32 noundef 1) #23
  unreachable

if.end3:                                          ; preds = %if.end
  %call4 = tail call i32 (ptr, ptr, ...) @redisAppendCommand(ptr noundef nonnull %call1, ptr noundef nonnull @.str.16537, ptr noundef nonnull @.str.16538) #22
  %call5 = tail call i32 (ptr, ptr, ...) @redisAppendCommand(ptr noundef nonnull %call1, ptr noundef nonnull @.str.16537, ptr noundef nonnull @.str.16539) #22
  store ptr null, ptr %r, align 8
  %appendonly = getelementptr inbounds i8, ptr %call, i64 8
  br label %for.body

for.body:                                         ; preds = %for.inc, %if.end3
  %trunc.not = phi i1 [ true, %if.end3 ], [ false, %for.inc ]
  %reply.050 = phi ptr [ null, %if.end3 ], [ %0, %for.inc ]
  %call7 = call i32 @redisGetReply(ptr noundef nonnull %call1, ptr noundef nonnull %r) #22
  %tobool8.not = icmp eq ptr %reply.050, null
  br i1 %tobool8.not, label %if.end10, label %if.then9

if.then9:                                         ; preds = %for.body
  call void @freeReplyObject(ptr noundef nonnull %reply.050) #22
  br label %if.end10

if.end10:                                         ; preds = %if.then9, %for.body
  %cmp11 = icmp eq i32 %call7, 0
  %0 = load ptr, ptr %r, align 8
  %tobool13 = icmp ne ptr %0, null
  %or.cond = select i1 %cmp11, i1 %tobool13, i1 false
  br i1 %or.cond, label %if.end15, label %fail

if.end15:                                         ; preds = %if.end10
  %1 = load i32, ptr %0, align 8
  %cond32 = icmp eq i32 %1, 2
  br i1 %cond32, label %lor.lhs.false21, label %land.lhs.true

lor.lhs.false21:                                  ; preds = %if.end15
  %elements = getelementptr inbounds i8, ptr %0, i64 48
  %2 = load i64, ptr %elements, align 8
  %cmp22 = icmp ult i64 %2, 2
  br i1 %cmp22, label %if.end49.critedge, label %if.end24

if.end24:                                         ; preds = %lor.lhs.false21
  %element = getelementptr inbounds i8, ptr %0, i64 56
  %3 = load ptr, ptr %element, align 8
  %arrayidx = getelementptr inbounds i8, ptr %3, i64 8
  %4 = load ptr, ptr %arrayidx, align 8
  %str = getelementptr inbounds i8, ptr %4, i64 32
  %5 = load ptr, ptr %str, align 8
  %tobool25.not = icmp eq ptr %5, null
  %spec.store.select = select i1 %tobool25.not, ptr @.str.16420, ptr %5
  %call28 = call ptr @hi_sdsnew(ptr noundef nonnull %spec.store.select) #22
  br i1 %trunc.not, label %for.inc, label %for.end

for.inc:                                          ; preds = %if.end24
  store ptr %call28, ptr %call, align 8
  br label %for.body, !llvm.loop !25

for.end:                                          ; preds = %if.end24
  store ptr %call28, ptr %appendonly, align 8
  call void @freeReplyObject(ptr noundef nonnull %0) #22
  call void @redisFree(ptr noundef nonnull %call1) #22
  br label %return

fail:                                             ; preds = %if.end10
  %tobool31.not74 = icmp ne ptr %0, null
  %tobool31.not.not = select i1 %cmp11, i1 %tobool31.not74, i1 false
  br i1 %tobool31.not.not, label %fail.land.lhs.truethread-pre-split_crit_edge, label %if.end49.critedge

fail.land.lhs.truethread-pre-split_crit_edge:     ; preds = %fail
  %.pr.pre = load i32, ptr %0, align 8
  br label %land.lhs.true

land.lhs.true:                                    ; preds = %if.end15, %fail.land.lhs.truethread-pre-split_crit_edge
  %6 = phi i32 [ %.pr.pre, %fail.land.lhs.truethread-pre-split_crit_edge ], [ %1, %if.end15 ]
  %cmp33 = icmp eq i32 %6, 6
  br i1 %cmp33, label %land.lhs.true34, label %if.end49.critedge

land.lhs.true34:                                  ; preds = %land.lhs.true
  %str35 = getelementptr inbounds i8, ptr %0, i64 32
  %7 = load ptr, ptr %str35, align 8
  %call36 = call i32 @strncmp(ptr noundef nonnull dereferenceable(1) %7, ptr noundef nonnull dereferenceable(7) @.str.16540, i64 noundef 6) #21
  %tobool37.not = icmp eq i32 %call36, 0
  br i1 %tobool37.not, label %if.then38, label %if.end49.critedge

if.then38:                                        ; preds = %land.lhs.true34
  %cmp39 = icmp eq ptr %hostsocket, null
  %8 = load ptr, ptr @stderr, align 8
  br i1 %cmp39, label %if.then40, label %if.else

if.then40:                                        ; preds = %if.then38
  %call42 = call i32 (ptr, ptr, ...) @fprintf(ptr noundef %8, ptr noundef nonnull @.str.16533, ptr noundef %ip, i32 noundef %port, ptr noundef %7) #25
  br label %if.end46

if.else:                                          ; preds = %if.then38
  %call44 = call i32 (ptr, ptr, ...) @fprintf(ptr noundef %8, ptr noundef nonnull @.str.16534, ptr noundef nonnull %hostsocket, ptr noundef %7) #25
  br label %if.end46

if.end46:                                         ; preds = %if.then40, %if.else
  call void @freeReplyObject(ptr noundef nonnull %0) #22
  call void @redisFree(ptr noundef nonnull %call1) #22
  call fastcc void @freeRedisConfig(ptr noundef nonnull %call)
  call void @exit(i32 noundef 1) #23
  unreachable

if.end49.critedge:                                ; preds = %lor.lhs.false21, %fail, %land.lhs.true, %land.lhs.true34
  %cond40 = phi ptr [ null, %fail ], [ %0, %land.lhs.true ], [ %0, %land.lhs.true34 ], [ %0, %lor.lhs.false21 ]
  call void @freeReplyObject(ptr noundef %cond40) #22
  call void @redisFree(ptr noundef nonnull %call1) #22
  %9 = load ptr, ptr %call, align 8
  %tobool.not.i = icmp eq ptr %9, null
  br i1 %tobool.not.i, label %if.end.i, label %if.then.i

if.then.i:                                        ; preds = %if.end49.critedge
  call void @hi_sdsfree(ptr noundef nonnull %9) #22
  br label %if.end.i

if.end.i:                                         ; preds = %if.then.i, %if.end49.critedge
  %10 = load ptr, ptr %appendonly, align 8
  %tobool2.not.i = icmp eq ptr %10, null
  br i1 %tobool2.not.i, label %freeRedisConfig.exit, label %if.then3.i

if.then3.i:                                       ; preds = %if.end.i
  call void @hi_sdsfree(ptr noundef nonnull %10) #22
  br label %freeRedisConfig.exit

freeRedisConfig.exit:                             ; preds = %if.end.i, %if.then3.i
  call void @zfree(ptr noundef nonnull %call) #22
  br label %return

return:                                           ; preds = %entry, %freeRedisConfig.exit, %for.end
  %retval.0 = phi ptr [ null, %freeRedisConfig.exit ], [ %call, %for.end ], [ null, %entry ]
  ret ptr %retval.0
}